; Function Attrs: mustprogress uwtable
define internal noalias noundef nonnull ptr @_ZL28llama_sampler_temp_ext_clonePK13llama_sampler(ptr noundef readonly captures(none) %0) #0 {
  %2 = getelementptr inbounds nuw i8, ptr %0, i64 8
  %3 = load ptr, ptr %2, align 8, !tbaa !9
  %4 = load float, ptr %3, align 4, !tbaa !72
  %5 = getelementptr inbounds nuw i8, ptr %3, i64 4
  %6 = load float, ptr %5, align 4, !tbaa !74
  %7 = getelementptr inbounds nuw i8, ptr %3, i64 8
  %8 = load float, ptr %7, align 4, !tbaa !75
  %9 = tail call noalias noundef nonnull dereferenceable(12) ptr @_Znwm(i64 noundef 12) #30
  store float %4, ptr %9, align 8, !tbaa !72
  %10 = getelementptr inbounds nuw i8, ptr %9, i64 4
  store float %6, ptr %10, align 4, !tbaa !74
  %11 = getelementptr inbounds nuw i8, ptr %9, i64 8
  store float %8, ptr %11, align 8, !tbaa !75
  %12 = tail call noalias noundef nonnull dereferenceable(16) ptr @_Znwm(i64 noundef 16) #30
  store ptr @_ZL24llama_sampler_temp_ext_i, ptr %12, align 16, !tbaa !3
  %13 = getelementptr inbounds nuw i8, ptr %12, i64 8
  store ptr %9, ptr %13, align 8, !tbaa !9
  ret ptr %12
}